_ZNK4llvm3orc7IRLayer26getCloneToNewContextOnEmitEv|llvm::orc::IRLayer::getCloneToNewContextOnEmit
_ZN4llvm3orc7IRLayer19getExecutionSessionEv|llvm::orc::IRLayer::getExecutionSession
_ZN4llvm3orc7IRLayer26setCloneToNewContextOnEmitEb|llvm::orc::IRLayer::setCloneToNewContextOnEmit
_ZNK4llvm3orc21IRMaterializationUnit9getModuleEv|llvm::orc::IRMaterializationUnit::getModule
_ZN4llvm7IRMover9getModuleEv|llvm::IRMover::getModule
_ZN4llvm9IRBuilder10CreateAShrEPNS_5ValueES2_RKNS_5TwineEb|llvm::IRBuilder::CreateAShr
_ZN4llvm9IRBuilder9CreateAddEPNS_5ValueES2_RKNS_5TwineEbb|llvm::IRBuilder::CreateAdd
_ZN4llvm9IRBuilder19CreateAddrSpaceCastEPNS_5ValueEPNS_4TypeERKNS_5TwineE|llvm::IRBuilder::CreateAddrSpaceCast
_ZN4llvm9IRBuilder18CreateAggregateRetEPKPNS_5ValueEj|llvm::IRBuilder::CreateAggregateRet
_ZN4llvm9IRBuilder17CreateAlignedLoadEPNS_4TypeEPNS_5ValueEjPKc|llvm::IRBuilder::CreateAlignedLoad
_ZN4llvm9IRBuilder18CreateAlignedStoreEPNS_5ValueES2_jb|llvm::IRBuilder::CreateAlignedStore
_ZN4llvm9IRBuilder25CreateAlignmentAssumptionERKNS_10DataLayoutEPNS_5ValueEjS5_PS5_|llvm::IRBuilder::CreateAlignmentAssumption
_ZN4llvm9IRBuilder31CreateAlignmentAssumptionHelperERKNS_10DataLayoutEPNS_5ValueES5_PNS_4TypeES5_PS5_|llvm::IRBuilder::CreateAlignmentAssumptionHelper
_ZN4llvm9IRBuilder12CreateAllocaEPNS_4TypeEjPNS_5ValueERKNS_5TwineE|llvm::IRBuilder::CreateAlloca
_ZN4llvm9IRBuilder9CreateAndEPNS_5ValueES2_RKNS_5TwineE|llvm::IRBuilder::CreateAnd
_ZN4llvm9IRBuilder19CreateAtomicCmpXchgEPNS_5ValueES2_S2_NS_14AtomicOrderingES3_h|llvm::IRBuilder::CreateAtomicCmpXchg
_ZN4llvm9IRBuilder15CreateAtomicRMWENS_13AtomicRMWInst5BinOpEPNS_5ValueES4_NS_14AtomicOrderingEh|llvm::IRBuilder::CreateAtomicRMW
_ZN4llvm9IRBuilder11CreateBinOpENS_11Instruction9BinaryOpsEPNS_5ValueES4_RKNS_5TwineEPNS_6MDNodeE|llvm::IRBuilder::CreateBinOp
_ZN4llvm9IRBuilder13CreateBitCastEPNS_5ValueEPNS_4TypeERKNS_5TwineE|llvm::IRBuilder::CreateBitCast
_ZN4llvm9IRBuilder22CreateBitOrPointerCastEPNS_5ValueEPNS_4TypeERKNS_5TwineE|llvm::IRBuilder::CreateBitOrPointerCast
_ZN4llvm9IRBuilder8CreateBrEPNS_10BasicBlockE|llvm::IRBuilder::CreateBr
_ZN4llvm9IRBuilder10CreateCallEPNS_12FunctionTypeEPNS_5ValueENS_8ArrayRefIS4_EERKNS_5TwineEPNS_6MDNodeE|llvm::IRBuilder::CreateCall
_ZN4llvm9IRBuilder12CreateCallBrEPNS_12FunctionTypeEPNS_5ValueEPNS_10BasicBlockENS_8ArrayRefIS6_EENS7_IS4_EERKNS_5TwineE|llvm::IRBuilder::CreateCallBr
_ZN4llvm9IRBuilder10CreateCastENS_11Instruction7CastOpsEPNS_5ValueEPNS_4TypeERKNS_5TwineE|llvm::IRBuilder::CreateCast
_ZN4llvm9IRBuilder14CreateCatchPadEPNS_5ValueENS_8ArrayRefIS2_EERKNS_5TwineE|llvm::IRBuilder::CreateCatchPad
_ZN4llvm9IRBuilder14CreateCatchRetEPNS_12CatchPadInstEPNS_10BasicBlockE|llvm::IRBuilder::CreateCatchRet
_ZN4llvm9IRBuilder17CreateCatchSwitchEPNS_5ValueEPNS_10BasicBlockEjRKNS_5TwineE|llvm::IRBuilder::CreateCatchSwitch
_ZN4llvm9IRBuilder16CreateCleanupPadEPNS_5ValueENS_8ArrayRefIS2_EERKNS_5TwineE|llvm::IRBuilder::CreateCleanupPad
_ZN4llvm9IRBuilder16CreateCleanupRetEPNS_14CleanupPadInstEPNS_10BasicBlockE|llvm::IRBuilder::CreateCleanupRet
_ZN4llvm9IRBuilder12CreateCondBrEPNS_5ValueEPNS_10BasicBlockES4_PNS_6MDNodeES6_|llvm::IRBuilder::CreateCondBr
_ZN4llvm9IRBuilder18CreateConstGEP1_32EPNS_5ValueEjRKNS_5TwineE|llvm::IRBuilder::CreateConstGEP1_32
_ZN4llvm9IRBuilder18CreateConstGEP1_64EPNS_4TypeEPNS_5ValueEmRKNS_5TwineE|llvm::IRBuilder::CreateConstGEP1_64
_ZN4llvm9IRBuilder18CreateConstGEP2_32EPNS_4TypeEPNS_5ValueEjjRKNS_5TwineE|llvm::IRBuilder::CreateConstGEP2_32
_ZN4llvm9IRBuilder18CreateConstGEP2_64EPNS_4TypeEPNS_5ValueEmmRKNS_5TwineE|llvm::IRBuilder::CreateConstGEP2_64
_ZN4llvm9IRBuilder26CreateConstInBoundsGEP1_32EPNS_4TypeEPNS_5ValueEjRKNS_5TwineE|llvm::IRBuilder::CreateConstInBoundsGEP1_32
_ZN4llvm9IRBuilder26CreateConstInBoundsGEP1_64EPNS_4TypeEPNS_5ValueEmRKNS_5TwineE|llvm::IRBuilder::CreateConstInBoundsGEP1_64
_ZN4llvm9IRBuilder26CreateConstInBoundsGEP2_32EPNS_4TypeEPNS_5ValueEjjRKNS_5TwineE|llvm::IRBuilder::CreateConstInBoundsGEP2_32
_ZN4llvm9IRBuilder26CreateConstInBoundsGEP2_64EPNS_4TypeEPNS_5ValueEmmRKNS_5TwineE|llvm::IRBuilder::CreateConstInBoundsGEP2_64
_ZN4llvm9IRBuilder15CreateExactSDivEPNS_5ValueES2_RKNS_5TwineE|llvm::IRBuilder::CreateExactSDiv
_ZN4llvm9IRBuilder15CreateExactUDivEPNS_5ValueES2_RKNS_5TwineE|llvm::IRBuilder::CreateExactUDiv
_ZN4llvm9IRBuilder20CreateExtractElementEPNS_5ValueES2_RKNS_5TwineE|llvm::IRBuilder::CreateExtractElement
_ZN4llvm9IRBuilder20CreateExtractIntegerERKNS_10DataLayoutEPNS_5ValueEPNS_11IntegerTypeEmRKNS_5TwineE|llvm::IRBuilder::CreateExtractInteger
_ZN4llvm9IRBuilder18CreateExtractValueEPNS_5ValueENS_8ArrayRefIjEERKNS_5TwineE|llvm::IRBuilder::CreateExtractValue
_ZN4llvm9IRBuilder10CreateFAddEPNS_5ValueES2_RKNS_5TwineEPNS_6MDNodeE|llvm::IRBuilder::CreateFAdd
_ZN4llvm9IRBuilder13CreateFAddFMFEPNS_5ValueES2_PNS_11InstructionERKNS_5TwineE|llvm::IRBuilder::CreateFAddFMF
_ZN4llvm9IRBuilder10CreateFCmpENS_7CmpInst9PredicateEPNS_5ValueES4_RKNS_5TwineEPNS_6MDNodeE|llvm::IRBuilder::CreateFCmp
_ZN4llvm9IRBuilder13CreateFCmpOEQEPNS_5ValueES2_RKNS_5TwineEPNS_6MDNodeE|llvm::IRBuilder::CreateFCmpOEQ
_ZN4llvm9IRBuilder13CreateFCmpOGEEPNS_5ValueES2_RKNS_5TwineEPNS_6MDNodeE|llvm::IRBuilder::CreateFCmpOGE
_ZN4llvm9IRBuilder13CreateFCmpOGTEPNS_5ValueES2_RKNS_5TwineEPNS_6MDNodeE|llvm::IRBuilder::CreateFCmpOGT
_ZN4llvm9IRBuilder13CreateFCmpOLEEPNS_5ValueES2_RKNS_5TwineEPNS_6MDNodeE|llvm::IRBuilder::CreateFCmpOLE
_ZN4llvm9IRBuilder13CreateFCmpOLTEPNS_5ValueES2_RKNS_5TwineEPNS_6MDNodeE|llvm::IRBuilder::CreateFCmpOLT
_ZN4llvm9IRBuilder13CreateFCmpONEEPNS_5ValueES2_RKNS_5TwineEPNS_6MDNodeE|llvm::IRBuilder::CreateFCmpONE
_ZN4llvm9IRBuilder13CreateFCmpORDEPNS_5ValueES2_RKNS_5TwineEPNS_6MDNodeE|llvm::IRBuilder::CreateFCmpORD
_ZN4llvm9IRBuilder13CreateFCmpUEQEPNS_5ValueES2_RKNS_5TwineEPNS_6MDNodeE|llvm::IRBuilder::CreateFCmpUEQ
_ZN4llvm9IRBuilder13CreateFCmpUGEEPNS_5ValueES2_RKNS_5TwineEPNS_6MDNodeE|llvm::IRBuilder::CreateFCmpUGE
_ZN4llvm9IRBuilder13CreateFCmpUGTEPNS_5ValueES2_RKNS_5TwineEPNS_6MDNodeE|llvm::IRBuilder::CreateFCmpUGT
_ZN4llvm9IRBuilder13CreateFCmpULEEPNS_5ValueES2_RKNS_5TwineEPNS_6MDNodeE|llvm::IRBuilder::CreateFCmpULE
_ZN4llvm9IRBuilder13CreateFCmpULTEPNS_5ValueES2_RKNS_5TwineEPNS_6MDNodeE|llvm::IRBuilder::CreateFCmpULT
_ZN4llvm9IRBuilder13CreateFCmpUNEEPNS_5ValueES2_RKNS_5TwineEPNS_6MDNodeE|llvm::IRBuilder::CreateFCmpUNE
_ZN4llvm9IRBuilder13CreateFCmpUNOEPNS_5ValueES2_RKNS_5TwineEPNS_6MDNodeE|llvm::IRBuilder::CreateFCmpUNO
_ZN4llvm9IRBuilder10CreateFDivEPNS_5ValueES2_RKNS_5TwineEPNS_6MDNodeE|llvm::IRBuilder::CreateFDiv
_ZN4llvm9IRBuilder13CreateFDivFMFEPNS_5ValueES2_PNS_11InstructionERKNS_5TwineE|llvm::IRBuilder::CreateFDivFMF
_ZN4llvm9IRBuilder10CreateFMulEPNS_5ValueES2_RKNS_5TwineEPNS_6MDNodeE|llvm::IRBuilder::CreateFMul
_ZN4llvm9IRBuilder13CreateFMulFMFEPNS_5ValueES2_PNS_11InstructionERKNS_5TwineE|llvm::IRBuilder::CreateFMulFMF
_ZN4llvm9IRBuilder10CreateFNegEPNS_5ValueERKNS_5TwineEPNS_6MDNodeE|llvm::IRBuilder::CreateFNeg
_ZN4llvm9IRBuilder13CreateFNegFMFEPNS_5ValueEPNS_11InstructionERKNS_5TwineE|llvm::IRBuilder::CreateFNegFMF
_ZN4llvm9IRBuilder12CreateFPCastEPNS_5ValueEPNS_4TypeERKNS_5TwineE|llvm::IRBuilder::CreateFPCast
_ZN4llvm9IRBuilder11CreateFPExtEPNS_5ValueEPNS_4TypeERKNS_5TwineE|llvm::IRBuilder::CreateFPExt
_ZN4llvm9IRBuilder12CreateFPToSIEPNS_5ValueEPNS_4TypeERKNS_5TwineE|llvm::IRBuilder::CreateFPToSI
_ZN4llvm9IRBuilder12CreateFPToUIEPNS_5ValueEPNS_4TypeERKNS_5TwineE|llvm::IRBuilder::CreateFPToUI
_ZN4llvm9IRBuilder13CreateFPTruncEPNS_5ValueEPNS_4TypeERKNS_5TwineE|llvm::IRBuilder::CreateFPTrunc
_ZN4llvm9IRBuilder10CreateFRemEPNS_5ValueES2_RKNS_5TwineEPNS_6MDNodeE|llvm::IRBuilder::CreateFRem
_ZN4llvm9IRBuilder13CreateFRemFMFEPNS_5ValueES2_PNS_11InstructionERKNS_5TwineE|llvm::IRBuilder::CreateFRemFMF
_ZN4llvm9IRBuilder10CreateFSubEPNS_5ValueES2_RKNS_5TwineEPNS_6MDNodeE|llvm::IRBuilder::CreateFSub
_ZN4llvm9IRBuilder13CreateFSubFMFEPNS_5ValueES2_PNS_11InstructionERKNS_5TwineE|llvm::IRBuilder::CreateFSubFMF
_ZN4llvm9IRBuilder11CreateFenceENS_14AtomicOrderingEhRKNS_5TwineE|llvm::IRBuilder::CreateFence
_ZN4llvm9IRBuilder9CreateGEPEPNS_5ValueENS_8ArrayRefIS2_EERKNS_5TwineE|llvm::IRBuilder::CreateGEP
_ZN4llvm9IRBuilder21CreateGlobalStringPtrENS_9StringRefERKNS_5TwineEj|llvm::IRBuilder::CreateGlobalStringPtr
_ZN4llvm9IRBuilder10CreateICmpENS_7CmpInst9PredicateEPNS_5ValueES4_RKNS_5TwineE|llvm::IRBuilder::CreateICmp
_ZN4llvm9IRBuilder12CreateICmpEQEPNS_5ValueES2_RKNS_5TwineE|llvm::IRBuilder::CreateICmpEQ
_ZN4llvm9IRBuilder12CreateICmpNEEPNS_5ValueES2_RKNS_5TwineE|llvm::IRBuilder::CreateICmpNE
_ZN4llvm9IRBuilder13CreateICmpSGEEPNS_5ValueES2_RKNS_5TwineE|llvm::IRBuilder::CreateICmpSGE
_ZN4llvm9IRBuilder13CreateICmpSGTEPNS_5ValueES2_RKNS_5TwineE|llvm::IRBuilder::CreateICmpSGT
_ZN4llvm9IRBuilder13CreateICmpSLEEPNS_5ValueES2_RKNS_5TwineE|llvm::IRBuilder::CreateICmpSLE
_ZN4llvm9IRBuilder13CreateICmpSLTEPNS_5ValueES2_RKNS_5TwineE|llvm::IRBuilder::CreateICmpSLT
_ZN4llvm9IRBuilder13CreateICmpUGEEPNS_5ValueES2_RKNS_5TwineE|llvm::IRBuilder::CreateICmpUGE
_ZN4llvm9IRBuilder13CreateICmpUGTEPNS_5ValueES2_RKNS_5TwineE|llvm::IRBuilder::CreateICmpUGT
_ZN4llvm9IRBuilder13CreateICmpULEEPNS_5ValueES2_RKNS_5TwineE|llvm::IRBuilder::CreateICmpULE
_ZN4llvm9IRBuilder13CreateICmpULTEPNS_5ValueES2_RKNS_5TwineE|llvm::IRBuilder::CreateICmpULT
_ZN4llvm9IRBuilder17CreateInBoundsGEPEPNS_5ValueENS_8ArrayRefIS2_EERKNS_5TwineE|llvm::IRBuilder::CreateInBoundsGEP
_ZN4llvm9IRBuilder16CreateIndirectBrEPNS_5ValueEj|llvm::IRBuilder::CreateIndirectBr
_ZN4llvm9IRBuilder19CreateInsertElementEPNS_5ValueES2_S2_RKNS_5TwineE|llvm::IRBuilder::CreateInsertElement
_ZN4llvm9IRBuilder23CreateInsertNUWNSWBinOpENS_11Instruction9BinaryOpsEPNS_5ValueES4_RKNS_5TwineEbb|llvm::IRBuilder::CreateInsertNUWNSWBinOp
_ZN4llvm9IRBuilder17CreateInsertValueEPNS_5ValueES2_NS_8ArrayRefIjEERKNS_5TwineE|llvm::IRBuilder::CreateInsertValue
_ZN4llvm9IRBuilder13CreateIntCastEPNS_5ValueEPNS_4TypeEbRKNS_5TwineE|llvm::IRBuilder::CreateIntCast
_ZN4llvm9IRBuilder14CreateIntToPtrEPNS_5ValueEPNS_4TypeERKNS_5TwineE|llvm::IRBuilder::CreateIntToPtr
_ZN4llvm9IRBuilder12CreateInvokeEPNS_12FunctionTypeEPNS_5ValueEPNS_10BasicBlockES6_NS_8ArrayRefIS4_EENS7_INS_17OperandBundleDefTIS4_EEEERKNS_5TwineE|llvm::IRBuilder::CreateInvoke
_ZN4llvm9IRBuilder15CreateIsNotNullEPNS_5ValueERKNS_5TwineE|llvm::IRBuilder::CreateIsNotNull
_ZN4llvm9IRBuilder12CreateIsNullEPNS_5ValueERKNS_5TwineE|llvm::IRBuilder::CreateIsNull
_ZN4llvm9IRBuilder10CreateLShrEPNS_5ValueES2_RKNS_5TwineEb|llvm::IRBuilder::CreateLShr
_ZN4llvm9IRBuilder16CreateLandingPadEPNS_4TypeEjRKNS_5TwineE|llvm::IRBuilder::CreateLandingPad
_ZN4llvm9IRBuilder27CreateLaunderInvariantGroupEPNS_5ValueE|llvm::IRBuilder::CreateLaunderInvariantGroup
_ZN4llvm9IRBuilder10CreateLoadEPNS_4TypeEPNS_5ValueEPKc|llvm::IRBuilder::CreateLoad
_ZN4llvm9IRBuilder9CreateMulEPNS_5ValueES2_RKNS_5TwineEbb|llvm::IRBuilder::CreateMul
_ZN4llvm9IRBuilder12CreateNAryOpEjNS_8ArrayRefIPNS_5ValueEEERKNS_5TwineEPNS_6MDNodeE|llvm::IRBuilder::CreateNAryOp
_ZN4llvm9IRBuilder12CreateNSWAddEPNS_5ValueES2_RKNS_5TwineE|llvm::IRBuilder::CreateNSWAdd
_ZN4llvm9IRBuilder12CreateNSWMulEPNS_5ValueES2_RKNS_5TwineE|llvm::IRBuilder::CreateNSWMul
_ZN4llvm9IRBuilder12CreateNSWNegEPNS_5ValueERKNS_5TwineE|llvm::IRBuilder::CreateNSWNeg
_ZN4llvm9IRBuilder12CreateNSWSubEPNS_5ValueES2_RKNS_5TwineE|llvm::IRBuilder::CreateNSWSub
_ZN4llvm9IRBuilder12CreateNUWAddEPNS_5ValueES2_RKNS_5TwineE|llvm::IRBuilder::CreateNUWAdd
_ZN4llvm9IRBuilder12CreateNUWMulEPNS_5ValueES2_RKNS_5TwineE|llvm::IRBuilder::CreateNUWMul
_ZN4llvm9IRBuilder12CreateNUWNegEPNS_5ValueERKNS_5TwineE|llvm::IRBuilder::CreateNUWNeg
_ZN4llvm9IRBuilder12CreateNUWSubEPNS_5ValueES2_RKNS_5TwineE|llvm::IRBuilder::CreateNUWSub
_ZN4llvm9IRBuilder9CreateNegEPNS_5ValueERKNS_5TwineEbb|llvm::IRBuilder::CreateNeg
_ZN4llvm9IRBuilder9CreateNotEPNS_5ValueERKNS_5TwineE|llvm::IRBuilder::CreateNot
_ZN4llvm9IRBuilder8CreateOrEPNS_5ValueES2_RKNS_5TwineE|llvm::IRBuilder::CreateOr
_ZN4llvm9IRBuilder9CreatePHIEPNS_4TypeEjRKNS_5TwineE|llvm::IRBuilder::CreatePHI
_ZN4llvm9IRBuilder35CreatePointerBitCastOrAddrSpaceCastEPNS_5ValueEPNS_4TypeERKNS_5TwineE|llvm::IRBuilder::CreatePointerBitCastOrAddrSpaceCast
_ZN4llvm9IRBuilder17CreatePointerCastEPNS_5ValueEPNS_4TypeERKNS_5TwineE|llvm::IRBuilder::CreatePointerCast
_ZN4llvm9IRBuilder13CreatePtrDiffEPNS_5ValueES2_RKNS_5TwineE|llvm::IRBuilder::CreatePtrDiff
_ZN4llvm9IRBuilder14CreatePtrToIntEPNS_5ValueEPNS_4TypeERKNS_5TwineE|llvm::IRBuilder::CreatePtrToInt
_ZN4llvm9IRBuilder12CreateResumeEPNS_5ValueE|llvm::IRBuilder::CreateResume
_ZN4llvm9IRBuilder9CreateRetEPNS_5ValueE|llvm::IRBuilder::CreateRet
_ZN4llvm9IRBuilder13CreateRetVoidEv|llvm::IRBuilder::CreateRetVoid
_ZN4llvm9IRBuilder10CreateSDivEPNS_5ValueES2_RKNS_5TwineEb|llvm::IRBuilder::CreateSDiv
_ZN4llvm9IRBuilder10CreateSExtEPNS_5ValueEPNS_4TypeERKNS_5TwineE|llvm::IRBuilder::CreateSExt
_ZN4llvm9IRBuilder19CreateSExtOrBitCastEPNS_5ValueEPNS_4TypeERKNS_5TwineE|llvm::IRBuilder::CreateSExtOrBitCast
_ZN4llvm9IRBuilder17CreateSExtOrTruncEPNS_5ValueEPNS_4TypeERKNS_5TwineE|llvm::IRBuilder::CreateSExtOrTrunc
_ZN4llvm9IRBuilder12CreateSIToFPEPNS_5ValueEPNS_4TypeERKNS_5TwineE|llvm::IRBuilder::CreateSIToFP
_ZN4llvm9IRBuilder10CreateSRemEPNS_5ValueES2_RKNS_5TwineE|llvm::IRBuilder::CreateSRem
_ZN4llvm9IRBuilder12CreateSelectEPNS_5ValueES2_S2_RKNS_5TwineEPNS_11InstructionE|llvm::IRBuilder::CreateSelect
_ZN4llvm9IRBuilder9CreateShlEPNS_5ValueES2_RKNS_5TwineEbb|llvm::IRBuilder::CreateShl
_ZN4llvm9IRBuilder19CreateShuffleVectorEPNS_5ValueES2_S2_RKNS_5TwineE|llvm::IRBuilder::CreateShuffleVector
_ZN4llvm9IRBuilder11CreateStoreEPNS_5ValueES2_b|llvm::IRBuilder::CreateStore
_ZN4llvm9IRBuilder25CreateStripInvariantGroupEPNS_5ValueE|llvm::IRBuilder::CreateStripInvariantGroup
_ZN4llvm9IRBuilder15CreateStructGEPEPNS_4TypeEPNS_5ValueEjRKNS_5TwineE|llvm::IRBuilder::CreateStructGEP
_ZN4llvm9IRBuilder9CreateSubEPNS_5ValueES2_RKNS_5TwineEbb|llvm::IRBuilder::CreateSub
_ZN4llvm9IRBuilder12CreateSwitchEPNS_5ValueEPNS_10BasicBlockEjPNS_6MDNodeES6_|llvm::IRBuilder::CreateSwitch
_ZN4llvm9IRBuilder11CreateTruncEPNS_5ValueEPNS_4TypeERKNS_5TwineE|llvm::IRBuilder::CreateTrunc
_ZN4llvm9IRBuilder20CreateTruncOrBitCastEPNS_5ValueEPNS_4TypeERKNS_5TwineE|llvm::IRBuilder::CreateTruncOrBitCast
_ZN4llvm9IRBuilder10CreateUDivEPNS_5ValueES2_RKNS_5TwineEb|llvm::IRBuilder::CreateUDiv
_ZN4llvm9IRBuilder12CreateUIToFPEPNS_5ValueEPNS_4TypeERKNS_5TwineE|llvm::IRBuilder::CreateUIToFP
_ZN4llvm9IRBuilder10CreateURemEPNS_5ValueES2_RKNS_5TwineE|llvm::IRBuilder::CreateURem
_ZN4llvm9IRBuilder10CreateUnOpENS_11Instruction8UnaryOpsEPNS_5ValueERKNS_5TwineEPNS_6MDNodeE|llvm::IRBuilder::CreateUnOp
_ZN4llvm9IRBuilder17CreateUnreachableEv|llvm::IRBuilder::CreateUnreachable
_ZN4llvm9IRBuilder11CreateVAArgEPNS_5ValueEPNS_4TypeERKNS_5TwineE|llvm::IRBuilder::CreateVAArg
_ZN4llvm9IRBuilder17CreateVectorSplatEjPNS_5ValueERKNS_5TwineE|llvm::IRBuilder::CreateVectorSplat
_ZN4llvm9IRBuilder9CreateXorEPNS_5ValueES2_RKNS_5TwineE|llvm::IRBuilder::CreateXor
_ZN4llvm9IRBuilder10CreateZExtEPNS_5ValueEPNS_4TypeERKNS_5TwineE|llvm::IRBuilder::CreateZExt
_ZN4llvm9IRBuilder19CreateZExtOrBitCastEPNS_5ValueEPNS_4TypeERKNS_5TwineE|llvm::IRBuilder::CreateZExtOrBitCast
_ZN4llvm9IRBuilder17CreateZExtOrTruncEPNS_5ValueEPNS_4TypeERKNS_5TwineE|llvm::IRBuilder::CreateZExtOrTrunc
_ZNK4llvm9IRBuilder6InsertEPT_RKNS_5TwineE|llvm::IRBuilder::Insert
_ZN4llvm9IRBuilder17addBranchMetadataEPT_PNS_6MDNodeES4_|llvm::IRBuilder::addBranchMetadata
_ZNK4llvm9IRBuilder12foldConstantENS_11Instruction9BinaryOpsEPNS_5ValueES4_RKNS_5TwineE|llvm::IRBuilder::foldConstant
_ZN4llvm9IRBuilder9getFolderEv|llvm::IRBuilder::getFolder
_ZNK4llvm9IRBuilder10setFPAttrsEPNS_11InstructionEPNS_6MDNodeENS_13FastMathFlagsE|llvm::IRBuilder::setFPAttrs
_ZN4llvm13IRBuilderBase19ClearInsertionPointEv|llvm::IRBuilderBase::ClearInsertionPoint
_ZN4llvm13IRBuilderBase34CreateElementUnorderedAtomicMemCpyEPNS_5ValueEjS2_jmjPNS_6MDNodeES4_S4_S4_|llvm::IRBuilderBase::CreateElementUnorderedAtomicMemCpy
_ZN4llvm13IRBuilderBase35CreateElementUnorderedAtomicMemMoveEPNS_5ValueEjS2_jmjPNS_6MDNodeES4_S4_S4_|llvm::IRBuilderBase::CreateElementUnorderedAtomicMemMove
_ZN4llvm13IRBuilderBase34CreateElementUnorderedAtomicMemSetEPNS_5ValueES2_mjjPNS_6MDNodeES4_S4_|llvm::IRBuilderBase::CreateElementUnorderedAtomicMemSet
_ZN4llvm13IRBuilderBase12CreateMaxNumEPNS_5ValueES2_RKNS_5TwineE|llvm::IRBuilderBase::CreateMaxNum
_ZN4llvm13IRBuilderBase13CreateMaximumEPNS_5ValueES2_RKNS_5TwineE|llvm::IRBuilderBase::CreateMaximum
_ZN4llvm13IRBuilderBase12CreateMemCpyEPNS_5ValueEjS2_jmbPNS_6MDNodeES4_S4_S4_|llvm::IRBuilderBase::CreateMemCpy
_ZN4llvm13IRBuilderBase13CreateMemMoveEPNS_5ValueEjS2_jmbPNS_6MDNodeES4_S4_|llvm::IRBuilderBase::CreateMemMove
_ZN4llvm13IRBuilderBase12CreateMemSetEPNS_5ValueES2_mjbPNS_6MDNodeES4_S4_|llvm::IRBuilderBase::CreateMemSet
_ZN4llvm13IRBuilderBase12CreateMinNumEPNS_5ValueES2_RKNS_5TwineE|llvm::IRBuilderBase::CreateMinNum
_ZN4llvm13IRBuilderBase13CreateMinimumEPNS_5ValueES2_RKNS_5TwineE|llvm::IRBuilderBase::CreateMinimum
_ZNK4llvm13IRBuilderBase14GetInsertBlockEv|llvm::IRBuilderBase::GetInsertBlock
_ZNK4llvm13IRBuilderBase14GetInsertPointEv|llvm::IRBuilderBase::GetInsertPoint
_ZN4llvm13IRBuilderBaseC1ERNS_11LLVMContextEPNS_6MDNodeENS_8ArrayRefINS_17OperandBundleDefTIPNS_5ValueEEEEE|llvm::IRBuilderBase::IRBuilderBase
_ZN4llvm13IRBuilderBase23SetCurrentDebugLocationENS_8DebugLocE|llvm::IRBuilderBase::SetCurrentDebugLocation
_ZN4llvm13IRBuilderBase14SetInsertPointEPNS_10BasicBlockE|llvm::IRBuilderBase::SetInsertPoint
_ZNK4llvm13IRBuilderBase20SetInstDebugLocationEPNS_11InstructionE|llvm::IRBuilderBase::SetInstDebugLocation
_ZN4llvm13IRBuilderBase18clearFastMathFlagsEv|llvm::IRBuilderBase::clearFastMathFlags
_ZNK4llvm13IRBuilderBase10getContextEv|llvm::IRBuilderBase::getContext
_ZNK4llvm13IRBuilderBase23getCurrentDebugLocationEv|llvm::IRBuilderBase::getCurrentDebugLocation
_ZNK4llvm13IRBuilderBase19getDefaultFPMathTagEv|llvm::IRBuilderBase::getDefaultFPMathTag
_ZN4llvm13IRBuilderBase11getDoubleTyEv|llvm::IRBuilderBase::getDoubleTy
_ZN4llvm13IRBuilderBase8getFalseEv|llvm::IRBuilderBase::getFalse
_ZNK4llvm13IRBuilderBase16getFastMathFlagsEv|llvm::IRBuilderBase::getFastMathFlags
_ZN4llvm13IRBuilderBase10getFloatTyEv|llvm::IRBuilderBase::getFloatTy
_ZN4llvm13IRBuilderBase9getHalfTyEv|llvm::IRBuilderBase::getHalfTy
_ZN4llvm13IRBuilderBase6getIntERKNS_5APIntE|llvm::IRBuilderBase::getInt
_ZN4llvm13IRBuilderBase7getInt1Eb|llvm::IRBuilderBase::getInt1
_ZN4llvm13IRBuilderBase11getInt128TyEv|llvm::IRBuilderBase::getInt128Ty
_ZN4llvm13IRBuilderBase8getInt16Et|llvm::IRBuilderBase::getInt16
_ZN4llvm13IRBuilderBase10getInt16TyEv|llvm::IRBuilderBase::getInt16Ty
_ZN4llvm13IRBuilderBase9getInt1TyEv|llvm::IRBuilderBase::getInt1Ty
_ZN4llvm13IRBuilderBase8getInt32Ej|llvm::IRBuilderBase::getInt32
_ZN4llvm13IRBuilderBase10getInt32TyEv|llvm::IRBuilderBase::getInt32Ty
_ZN4llvm13IRBuilderBase8getInt64Em|llvm::IRBuilderBase::getInt64
_ZN4llvm13IRBuilderBase10getInt64TyEv|llvm::IRBuilderBase::getInt64Ty
_ZN4llvm13IRBuilderBase7getInt8Eh|llvm::IRBuilderBase::getInt8
_ZN4llvm13IRBuilderBase12getInt8PtrTyEj|llvm::IRBuilderBase::getInt8PtrTy
_ZN4llvm13IRBuilderBase9getInt8TyEv|llvm::IRBuilderBase::getInt8Ty
_ZN4llvm13IRBuilderBase7getIntNEjm|llvm::IRBuilderBase::getIntN
_ZN4llvm13IRBuilderBase9getIntNTyEj|llvm::IRBuilderBase::getIntNTy
_ZN4llvm13IRBuilderBase11getIntPtrTyERKNS_10DataLayoutEj|llvm::IRBuilderBase::getIntPtrTy
_ZN4llvm13IRBuilderBase7getTrueEv|llvm::IRBuilderBase::getTrue
_ZN4llvm13IRBuilderBase9getVoidTyEv|llvm::IRBuilderBase::getVoidTy
_ZN4llvm13IRBuilderBase9restoreIPENS0_11InsertPointE|llvm::IRBuilderBase::restoreIP
_ZN4llvm13IRBuilderBase14saveAndClearIPEv|llvm::IRBuilderBase::saveAndClearIP
_ZNK4llvm13IRBuilderBase6saveIPEv|llvm::IRBuilderBase::saveIP
_ZN4llvm13IRBuilderBase19setDefaultFPMathTagEPNS_6MDNodeE|llvm::IRBuilderBase::setDefaultFPMathTag
_ZN4llvm13IRBuilderBase16setFastMathFlagsENS_13FastMathFlagsE|llvm::IRBuilderBase::setFastMathFlags
_ZN4llvm25IRBuilderCallbackInserterC1ESt8functionIFvPNS_11InstructionEEE|llvm::IRBuilderCallbackInserter::IRBuilderCallbackInserter
_ZNK4llvm25IRBuilderCallbackInserter12InsertHelperEPNS_11InstructionERKNS_5TwineEPNS_10BasicBlockENS_14ilist_iteratorINS_12ilist_detail12node_optionsI3135198|llvm::IRBuilderCallbackInserter::InsertHelper
_ZNK4llvm24IRBuilderDefaultInserter12InsertHelperEPNS_11InstructionERKNS_5TwineEPNS_10BasicBlockENS_14ilist_iteratorINS_12ilist_detail12node_optionsIS12633019|llvm::IRBuilderDefaultInserter::InsertHelper
_ZN4llvm6object12IRObjectFile7classofEPKNS0_6BinaryE|llvm::object::IRObjectFile::classof
_ZNK4llvm6object12IRObjectFile12module_beginEv|llvm::object::IRObjectFile::module_begin
_ZNK4llvm6object12IRObjectFile10module_endEv|llvm::object::IRObjectFile::module_end
_ZNK4llvm6object12IRObjectFile7modulesEv|llvm::object::IRObjectFile::modules
_ZN4llvm10bfi_detail16IrreducibleGraph7IrrNodeC1ERKNS_26BlockFrequencyInfoImplBase9BlockNodeE|llvm::bfi_detail::IrreducibleGraph::IrrNode::IrrNode
_ZNK4llvm10bfi_detail16IrreducibleGraph7IrrNode10pred_beginEv|llvm::bfi_detail::IrreducibleGraph::IrrNode::pred_begin
_ZNK4llvm10bfi_detail16IrreducibleGraph7IrrNode8pred_endEv|llvm::bfi_detail::IrreducibleGraph::IrrNode::pred_end
_ZNK4llvm10bfi_detail16IrreducibleGraph7IrrNode10succ_beginEv|llvm::bfi_detail::IrreducibleGraph::IrrNode::succ_begin
_ZNK4llvm10bfi_detail16IrreducibleGraph7IrrNode8succ_endEv|llvm::bfi_detail::IrreducibleGraph::IrrNode::succ_end
_ZN4llvm10bfi_detail16IrreducibleGraphC1ERNS_26BlockFrequencyInfoImplBaseEPKNS2_8LoopDataET_|llvm::bfi_detail::IrreducibleGraph::IrreducibleGraph
_ZN4llvm10bfi_detail16IrreducibleGraph8addEdgesERKNS_26BlockFrequencyInfoImplBase9BlockNodeEPKNS2_8LoopDataET_|llvm::bfi_detail::IrreducibleGraph::addEdges
_ZN4llvm10bfi_detail16IrreducibleGraph7addNodeERKNS_26BlockFrequencyInfoImplBase9BlockNodeE|llvm::bfi_detail::IrreducibleGraph::addNode
_ZN4llvm10bfi_detail16IrreducibleGraph10initializeEPKNS_26BlockFrequencyInfoImplBase8LoopDataET_|llvm::bfi_detail::IrreducibleGraph::initialize
_ZN4llvm10bfi_detail16IrreducibleGraph7addEdgeERNS1_7IrrNodeERKNS_26BlockFrequencyInfoImplBase9BlockNodeEPKNS4_8LoopDataE|llvm::bfi_detail::IrreducibleGraph::addEdge
_ZN4llvm10bfi_detail16IrreducibleGraph18addNodesInFunctionEv|llvm::bfi_detail::IrreducibleGraph::addNodesInFunction
_ZN4llvm10bfi_detail16IrreducibleGraph14addNodesInLoopERKNS_26BlockFrequencyInfoImplBase8LoopDataE|llvm::bfi_detail::IrreducibleGraph::addNodesInLoop
_ZN4llvm10bfi_detail16IrreducibleGraph10indexNodesEv|llvm::bfi_detail::IrreducibleGraph::indexNodes
_ZN4llvm12IRTranslatorC1Ev|llvm::IRTranslator::IRTranslator
_ZN4llvm12IRTranslator17addMachineCFGPredESt4pairIPKNS_10BasicBlockES4_EPNS_17MachineBasicBlockE|llvm::IRTranslator::addMachineCFGPred
_ZN4llvm12IRTranslator13allocateVRegsERKNS_5ValueE|llvm::IRTranslator::allocateVRegs
_ZN4llvm12IRTranslator16finalizeFunctionEv|llvm::IRTranslator::finalizeFunction
_ZN4llvm12IRTranslator17finishPendingPhisEv|llvm::IRTranslator::finishPendingPhis
_ZNK4llvm12IRTranslator16getAnalysisUsageERNS_13AnalysisUsageE|llvm::IRTranslator::getAnalysisUsage
_ZN4llvm12IRTranslator6getMBBERKNS_10BasicBlockE|llvm::IRTranslator::getMBB
_ZN4llvm12IRTranslator17getMachinePredBBsESt4pairIPKNS_10BasicBlockES4_E|llvm::IRTranslator::getMachinePredBBs
_ZN4llvm12IRTranslator17getMemOpAlignmentERKNS_11InstructionE|llvm::IRTranslator::getMemOpAlignment
_ZN4llvm12IRTranslator21getOrCreateFrameIndexERKNS_10AllocaInstE|llvm::IRTranslator::getOrCreateFrameIndex
_ZN4llvm12IRTranslator15getOrCreateVRegERKNS_5ValueE|llvm::IRTranslator::getOrCreateVReg
_ZN4llvm12IRTranslator16getOrCreateVRegsERKNS_5ValueE|llvm::IRTranslator::getOrCreateVRegs
_ZNK4llvm12IRTranslator11getPassNameEv|llvm::IRTranslator::getPassName
_ZN4llvm12IRTranslator24getSimpleIntrinsicOpcodeENS_9Intrinsic2IDE|llvm::IRTranslator::getSimpleIntrinsicOpcode
_ZN4llvm12IRTranslator13getStackGuardEjRNS_16MachineIRBuilderE|llvm::IRTranslator::getStackGuard
_ZN4llvm12IRTranslator8packRegsERKNS_5ValueERNS_16MachineIRBuilderE|llvm::IRTranslator::packRegs
_ZN4llvm12IRTranslator20runOnMachineFunctionERNS_15MachineFunctionE|llvm::IRTranslator::runOnMachineFunction
_ZN4llvm12IRTranslator9translateERKNS_11InstructionE|llvm::IRTranslator::translate
_ZN4llvm12IRTranslator13translateAShrERKNS_4UserERNS_16MachineIRBuilderE|llvm::IRTranslator::translateAShr
_ZN4llvm12IRTranslator12translateAddERKNS_4UserERNS_16MachineIRBuilderE|llvm::IRTranslator::translateAdd
_ZN4llvm12IRTranslator22translateAddrSpaceCastERKNS_4UserERNS_16MachineIRBuilderE|llvm::IRTranslator::translateAddrSpaceCast
_ZN4llvm12IRTranslator15translateAllocaERKNS_4UserERNS_16MachineIRBuilderE|llvm::IRTranslator::translateAlloca
_ZN4llvm12IRTranslator12translateAndERKNS_4UserERNS_16MachineIRBuilderE|llvm::IRTranslator::translateAnd
_ZN4llvm12IRTranslator22translateAtomicCmpXchgERKNS_4UserERNS_16MachineIRBuilderE|llvm::IRTranslator::translateAtomicCmpXchg
_ZN4llvm12IRTranslator18translateAtomicRMWERKNS_4UserERNS_16MachineIRBuilderE|llvm::IRTranslator::translateAtomicRMW
_ZN4llvm12IRTranslator17translateBinaryOpEjRKNS_4UserERNS_16MachineIRBuilderE|llvm::IRTranslator::translateBinaryOp
_ZN4llvm12IRTranslator16translateBitCastERKNS_4UserERNS_16MachineIRBuilderE|llvm::IRTranslator::translateBitCast
_ZN4llvm12IRTranslator11translateBrERKNS_4UserERNS_16MachineIRBuilderE|llvm::IRTranslator::translateBr
_ZN4llvm12IRTranslator13translateCallERKNS_4UserERNS_16MachineIRBuilderE|llvm::IRTranslator::translateCall
_ZN4llvm12IRTranslator15translateCallBrERKNS_4UserERNS_16MachineIRBuilderE|llvm::IRTranslator::translateCallBr
_ZN4llvm12IRTranslator13translateCastEjRKNS_4UserERNS_16MachineIRBuilderE|llvm::IRTranslator::translateCast
_ZN4llvm12IRTranslator17translateCatchPadERKNS_4UserERNS_16MachineIRBuilderE|llvm::IRTranslator::translateCatchPad
_ZN4llvm12IRTranslator17translateCatchRetERKNS_4UserERNS_16MachineIRBuilderE|llvm::IRTranslator::translateCatchRet
_ZN4llvm12IRTranslator20translateCatchSwitchERKNS_4UserERNS_16MachineIRBuilderE|llvm::IRTranslator::translateCatchSwitch
_ZN4llvm12IRTranslator19translateCleanupPadERKNS_4UserERNS_16MachineIRBuilderE|llvm::IRTranslator::translateCleanupPad
_ZN4llvm12IRTranslator19translateCleanupRetERKNS_4UserERNS_16MachineIRBuilderE|llvm::IRTranslator::translateCleanupRet
_ZN4llvm12IRTranslator16translateCompareERKNS_4UserERNS_16MachineIRBuilderE|llvm::IRTranslator::translateCompare
_ZN4llvm12IRTranslator23translateExtractElementERKNS_4UserERNS_16MachineIRBuilderE|llvm::IRTranslator::translateExtractElement
_ZN4llvm12IRTranslator21translateExtractValueERKNS_4UserERNS_16MachineIRBuilderE|llvm::IRTranslator::translateExtractValue
_ZN4llvm12IRTranslator13translateFAddERKNS_4UserERNS_16MachineIRBuilderE|llvm::IRTranslator::translateFAdd
_ZN4llvm12IRTranslator13translateFCmpERKNS_4UserERNS_16MachineIRBuilderE|llvm::IRTranslator::translateFCmp
_ZN4llvm12IRTranslator13translateFDivERKNS_4UserERNS_16MachineIRBuilderE|llvm::IRTranslator::translateFDiv
_ZN4llvm12IRTranslator13translateFMulERKNS_4UserERNS_16MachineIRBuilderE|llvm::IRTranslator::translateFMul
_ZN4llvm12IRTranslator13translateFNegERKNS_4UserERNS_16MachineIRBuilderE|llvm::IRTranslator::translateFNeg
_ZN4llvm12IRTranslator14translateFPExtERKNS_4UserERNS_16MachineIRBuilderE|llvm::IRTranslator::translateFPExt
_ZN4llvm12IRTranslator15translateFPToSIERKNS_4UserERNS_16MachineIRBuilderE|llvm::IRTranslator::translateFPToSI
_ZN4llvm12IRTranslator15translateFPToUIERKNS_4UserERNS_16MachineIRBuilderE|llvm::IRTranslator::translateFPToUI
_ZN4llvm12IRTranslator16translateFPTruncERKNS_4UserERNS_16MachineIRBuilderE|llvm::IRTranslator::translateFPTrunc
_ZN4llvm12IRTranslator13translateFRemERKNS_4UserERNS_16MachineIRBuilderE|llvm::IRTranslator::translateFRem
_ZN4llvm12IRTranslator13translateFSubERKNS_4UserERNS_16MachineIRBuilderE|llvm::IRTranslator::translateFSub
_ZN4llvm12IRTranslator14translateFenceERKNS_4UserERNS_16MachineIRBuilderE|llvm::IRTranslator::translateFence
_ZN4llvm12IRTranslator22translateGetElementPtrERKNS_4UserERNS_16MachineIRBuilderE|llvm::IRTranslator::translateGetElementPtr
_ZN4llvm12IRTranslator13translateICmpERKNS_4UserERNS_16MachineIRBuilderE|llvm::IRTranslator::translateICmp
_ZN4llvm12IRTranslator19translateIndirectBrERKNS_4UserERNS_16MachineIRBuilderE|llvm::IRTranslator::translateIndirectBr
_ZN4llvm12IRTranslator18translateInlineAsmERKNS_8CallInstERNS_16MachineIRBuilderE|llvm::IRTranslator::translateInlineAsm
_ZN4llvm12IRTranslator22translateInsertElementERKNS_4UserERNS_16MachineIRBuilderE|llvm::IRTranslator::translateInsertElement
_ZN4llvm12IRTranslator20translateInsertValueERKNS_4UserERNS_16MachineIRBuilderE|llvm::IRTranslator::translateInsertValue
_ZN4llvm12IRTranslator17translateIntToPtrERKNS_4UserERNS_16MachineIRBuilderE|llvm::IRTranslator::translateIntToPtr
_ZN4llvm12IRTranslator15translateInvokeERKNS_4UserERNS_16MachineIRBuilderE|llvm::IRTranslator::translateInvoke
_ZN4llvm12IRTranslator23translateKnownIntrinsicERKNS_8CallInstENS_9Intrinsic2IDERNS_16MachineIRBuilderE|llvm::IRTranslator::translateKnownIntrinsic
_ZN4llvm12IRTranslator13translateLShrERKNS_4UserERNS_16MachineIRBuilderE|llvm::IRTranslator::translateLShr
_ZN4llvm12IRTranslator19translateLandingPadERKNS_4UserERNS_16MachineIRBuilderE|llvm::IRTranslator::translateLandingPad
_ZN4llvm12IRTranslator13translateLoadERKNS_4UserERNS_16MachineIRBuilderE|llvm::IRTranslator::translateLoad
_ZN4llvm12IRTranslator16translateMemfuncERKNS_8CallInstERNS_16MachineIRBuilderEj|llvm::IRTranslator::translateMemfunc
_ZN4llvm12IRTranslator12translateMulERKNS_4UserERNS_16MachineIRBuilderE|llvm::IRTranslator::translateMul
_ZN4llvm12IRTranslator11translateOrERKNS_4UserERNS_16MachineIRBuilderE|llvm::IRTranslator::translateOr
_ZN4llvm12IRTranslator26translateOverflowIntrinsicERKNS_8CallInstEjRNS_16MachineIRBuilderE|llvm::IRTranslator::translateOverflowIntrinsic
_ZN4llvm12IRTranslator12translatePHIERKNS_4UserERNS_16MachineIRBuilderE|llvm::IRTranslator::translatePHI
_ZN4llvm12IRTranslator17translatePtrToIntERKNS_4UserERNS_16MachineIRBuilderE|llvm::IRTranslator::translatePtrToInt
_ZN4llvm12IRTranslator15translateResumeERKNS_4UserERNS_16MachineIRBuilderE|llvm::IRTranslator::translateResume
_ZN4llvm12IRTranslator12translateRetERKNS_4UserERNS_16MachineIRBuilderE|llvm::IRTranslator::translateRet
_ZN4llvm12IRTranslator13translateSDivERKNS_4UserERNS_16MachineIRBuilderE|llvm::IRTranslator::translateSDiv
_ZN4llvm12IRTranslator13translateSExtERKNS_4UserERNS_16MachineIRBuilderE|llvm::IRTranslator::translateSExt
_ZN4llvm12IRTranslator15translateSIToFPERKNS_4UserERNS_16MachineIRBuilderE|llvm::IRTranslator::translateSIToFP
_ZN4llvm12IRTranslator13translateSRemERKNS_4UserERNS_16MachineIRBuilderE|llvm::IRTranslator::translateSRem
_ZN4llvm12IRTranslator15translateSelectERKNS_4UserERNS_16MachineIRBuilderE|llvm::IRTranslator::translateSelect
_ZN4llvm12IRTranslator12translateShlERKNS_4UserERNS_16MachineIRBuilderE|llvm::IRTranslator::translateShl
_ZN4llvm12IRTranslator22translateShuffleVectorERKNS_4UserERNS_16MachineIRBuilderE|llvm::IRTranslator::translateShuffleVector
_ZN4llvm12IRTranslator24translateSimpleIntrinsicERKNS_8CallInstENS_9Intrinsic2IDERNS_16MachineIRBuilderE|llvm::IRTranslator::translateSimpleIntrinsic
_ZN4llvm12IRTranslator14translateStoreERKNS_4UserERNS_16MachineIRBuilderE|llvm::IRTranslator::translateStore
_ZN4llvm12IRTranslator12translateSubERKNS_4UserERNS_16MachineIRBuilderE|llvm::IRTranslator::translateSub
_ZN4llvm12IRTranslator15translateSwitchERKNS_4UserERNS_16MachineIRBuilderE|llvm::IRTranslator::translateSwitch
_ZN4llvm12IRTranslator14translateTruncERKNS_4UserERNS_16MachineIRBuilderE|llvm::IRTranslator::translateTrunc
_ZN4llvm12IRTranslator13translateUDivERKNS_4UserERNS_16MachineIRBuilderE|llvm::IRTranslator::translateUDiv
_ZN4llvm12IRTranslator15translateUIToFPERKNS_4UserERNS_16MachineIRBuilderE|llvm::IRTranslator::translateUIToFP
_ZN4llvm12IRTranslator13translateURemERKNS_4UserERNS_16MachineIRBuilderE|llvm::IRTranslator::translateURem
_ZN4llvm12IRTranslator20translateUnreachableERKNS_4UserERNS_16MachineIRBuilderE|llvm::IRTranslator::translateUnreachable
_ZN4llvm12IRTranslator16translateUserOp1ERKNS_4UserERNS_16MachineIRBuilderE|llvm::IRTranslator::translateUserOp1
_ZN4llvm12IRTranslator16translateUserOp2ERKNS_4UserERNS_16MachineIRBuilderE|llvm::IRTranslator::translateUserOp2
_ZN4llvm12IRTranslator14translateVAArgERKNS_4UserERNS_16MachineIRBuilderE|llvm::IRTranslator::translateVAArg
_ZN4llvm12IRTranslator12translateXorERKNS_4UserERNS_16MachineIRBuilderE|llvm::IRTranslator::translateXor
_ZN4llvm12IRTranslator13translateZExtERKNS_4UserERNS_16MachineIRBuilderE|llvm::IRTranslator::translateZExt
_ZN4llvm12IRTranslator10unpackRegsERKNS_5ValueEjRNS_16MachineIRBuilderE|llvm::IRTranslator::unpackRegs
_ZN4llvm12IRTranslator12valueIsSplitERKNS_5ValueEPNS_15SmallVectorImplImEE|llvm::IRTranslator::valueIsSplit
_ZN4llvm3orc14IRCompileLayerC1ERNS0_16ExecutionSessionERNS0_11ObjectLayerESt8functionIFNS_8ExpectedISt10unique_ptrINS_12MemoryBufferESt14default_delet1940627|llvm::orc::IRCompileLayer::IRCompileLayer
_ZN4llvm3orc14IRCompileLayer4emitENS0_29MaterializationResponsibilityENS0_16ThreadSafeModuleE|llvm::orc::IRCompileLayer::emit
_ZN4llvm3orc14IRCompileLayer17setNotifyCompiledESt8functionIFvmNS0_16ThreadSafeModuleEEE|llvm::orc::IRCompileLayer::setNotifyCompiled
_ZN4llvm3orc16IRTransformLayerC1ERNS0_16ExecutionSessionERNS0_7IRLayerESt8functionIFNS_8ExpectedINS0_16ThreadSafeModuleEEES8_RKNS0_29MaterializationResponsibilityEEE|llvm::orc::IRTransformLayer::IRTransformLayer
_ZN4llvm3orc16IRTransformLayer4emitENS0_29MaterializationResponsibilityENS0_16ThreadSafeModuleE|llvm::orc::IRTransformLayer::emit
_ZN4llvm3orc16IRTransformLayer17identityTransformENS0_16ThreadSafeModuleERKNS0_29MaterializationResponsibilityE|llvm::orc::IRTransformLayer::identityTransform
_ZN4llvm3orc16IRTransformLayer12setTransformESt8functionIFNS_8ExpectedINS0_16ThreadSafeModuleEEES4_RKNS0_29MaterializationResponsibilityEEE|llvm::orc::IRTransformLayer::setTransform
_ZN4llvm3orc7IRLayerC1ERNS0_16ExecutionSessionE|llvm::orc::IRLayer::IRLayer
_ZN4llvm3orc7IRLayer3addERNS0_8JITDylibENS0_16ThreadSafeModuleEm|llvm::orc::IRLayer::add
_ZN4llvm3orc7IRLayerD1Ev|llvm::orc::IRLayer::~IRLayer
_ZN4llvm3orc21IRMaterializationUnitC1ERNS0_16ExecutionSessionENS0_16ThreadSafeModuleEm|llvm::orc::IRMaterializationUnit::IRMaterializationUnit
_ZN4llvm3orc21IRMaterializationUnit7discardERKNS0_8JITDylibERKNS0_15SymbolStringPtrE|llvm::orc::IRMaterializationUnit::discard
_ZNK4llvm3orc21IRMaterializationUnit7getNameEv|llvm::orc::IRMaterializationUnit::getName
_ZN4llvm18IRMutationStrategy6mutateERNS_11InstructionERNS_15RandomIRBuilderE|llvm::IRMutationStrategy::mutate
_ZN4llvm18IRMutationStrategyD1Ev|llvm::IRMutationStrategy::~IRMutationStrategy
_ZN4llvm9IRMutatorC1EOSt6vectorISt8functionIFPNS_4TypeERNS_11LLVMContextEEESaIS8_EEOS1_ISt10unique_ptrINS_18IRMutationStrategyESt14default_deleteISD_EESaISG_EE|llvm::IRMutator::IRMutator
_ZN4llvm9IRMutator12mutateModuleERNS_6ModuleEimm|llvm::IRMutator::mutateModule
_ZN4llvm13IRBuilderBase15CreateAddReduceEPNS_5ValueE|llvm::IRBuilderBase::CreateAddReduce
_ZN4llvm13IRBuilderBase15CreateAndReduceEPNS_5ValueE|llvm::IRBuilderBase::CreateAndReduce
_ZN4llvm13IRBuilderBase16CreateAssumptionEPNS_5ValueE|llvm::IRBuilderBase::CreateAssumption
_ZN4llvm13IRBuilderBase21CreateBinaryIntrinsicENS_9Intrinsic2IDEPNS_5ValueES4_PNS_11InstructionERKNS_5TwineE|llvm::IRBuilderBase::CreateBinaryIntrinsic
_ZN4llvm13IRBuilderBase34CreateElementUnorderedAtomicMemCpyEPNS_5ValueEjS2_jS2_jPNS_6MDNodeES4_S4_S4_|llvm::IRBuilderBase::CreateElementUnorderedAtomicMemCpy
_ZN4llvm13IRBuilderBase35CreateElementUnorderedAtomicMemMoveEPNS_5ValueEjS2_jS2_jPNS_6MDNodeES4_S4_S4_|llvm::IRBuilderBase::CreateElementUnorderedAtomicMemMove
_ZN4llvm13IRBuilderBase34CreateElementUnorderedAtomicMemSetEPNS_5ValueES2_S2_jjPNS_6MDNodeES4_S4_|llvm::IRBuilderBase::CreateElementUnorderedAtomicMemSet
_ZN4llvm13IRBuilderBase16CreateFAddReduceEPNS_5ValueES2_|llvm::IRBuilderBase::CreateFAddReduce
_ZN4llvm13IRBuilderBase16CreateFMulReduceEPNS_5ValueES2_|llvm::IRBuilderBase::CreateFMulReduce
_ZN4llvm13IRBuilderBase17CreateFPMaxReduceEPNS_5ValueEb|llvm::IRBuilderBase::CreateFPMaxReduce
_ZN4llvm13IRBuilderBase17CreateFPMinReduceEPNS_5ValueEb|llvm::IRBuilderBase::CreateFPMinReduce
_ZN4llvm13IRBuilderBase16CreateGCRelocateEPNS_11InstructionEiiPNS_4TypeERKNS_5TwineE|llvm::IRBuilderBase::CreateGCRelocate
_ZN4llvm13IRBuilderBase14CreateGCResultEPNS_11InstructionEPNS_4TypeERKNS_5TwineE|llvm::IRBuilderBase::CreateGCResult
_ZN4llvm13IRBuilderBase22CreateGCStatepointCallEmjPNS_5ValueENS_8ArrayRefIS2_EES4_S4_RKNS_5TwineE|llvm::IRBuilderBase::CreateGCStatepointCall
_ZN4llvm13IRBuilderBase24CreateGCStatepointInvokeEmjPNS_5ValueEPNS_10BasicBlockES4_NS_8ArrayRefIS2_EES6_S6_RKNS_5TwineE|llvm::IRBuilderBase::CreateGCStatepointInvoke
_ZN4llvm13IRBuilderBase18CreateGlobalStringENS_9StringRefERKNS_5TwineEj|llvm::IRBuilderBase::CreateGlobalString
_ZN4llvm13IRBuilderBase18CreateIntMaxReduceEPNS_5ValueEb|llvm::IRBuilderBase::CreateIntMaxReduce
_ZN4llvm13IRBuilderBase18CreateIntMinReduceEPNS_5ValueEb|llvm::IRBuilderBase::CreateIntMinReduce
_ZN4llvm13IRBuilderBase15CreateIntrinsicENS_9Intrinsic2IDENS_8ArrayRefIPNS_4TypeEEENS3_IPNS_5ValueEEEPNS_11InstructionERKNS_5TwineE|llvm::IRBuilderBase::CreateIntrinsic
_ZN4llvm13IRBuilderBase20CreateInvariantStartEPNS_5ValueEPNS_11ConstantIntE|llvm::IRBuilderBase::CreateInvariantStart
_ZN4llvm13IRBuilderBase17CreateLifetimeEndEPNS_5ValueEPNS_11ConstantIntE|llvm::IRBuilderBase::CreateLifetimeEnd
_ZN4llvm13IRBuilderBase19CreateLifetimeStartEPNS_5ValueEPNS_11ConstantIntE|llvm::IRBuilderBase::CreateLifetimeStart
_ZN4llvm13IRBuilderBase18CreateMaskedGatherEPNS_5ValueEjS2_S2_RKNS_5TwineE|llvm::IRBuilderBase::CreateMaskedGather
_ZN4llvm13IRBuilderBase21CreateMaskedIntrinsicENS_9Intrinsic2IDENS_8ArrayRefIPNS_5ValueEEENS3_IPNS_4TypeEEERKNS_5TwineE|llvm::IRBuilderBase::CreateMaskedIntrinsic
_ZN4llvm13IRBuilderBase16CreateMaskedLoadEPNS_5ValueEjS2_S2_RKNS_5TwineE|llvm::IRBuilderBase::CreateMaskedLoad
_ZN4llvm13IRBuilderBase19CreateMaskedScatterEPNS_5ValueES2_jS2_|llvm::IRBuilderBase::CreateMaskedScatter
_ZN4llvm13IRBuilderBase17CreateMaskedStoreEPNS_5ValueES2_jS2_|llvm::IRBuilderBase::CreateMaskedStore
_ZN4llvm13IRBuilderBase12CreateMemCpyEPNS_5ValueEjS2_jS2_bPNS_6MDNodeES4_S4_S4_|llvm::IRBuilderBase::CreateMemCpy
_ZN4llvm13IRBuilderBase13CreateMemMoveEPNS_5ValueEjS2_jS2_bPNS_6MDNodeES4_S4_|llvm::IRBuilderBase::CreateMemMove
_ZN4llvm13IRBuilderBase12CreateMemSetEPNS_5ValueES2_S2_jbPNS_6MDNodeES4_S4_|llvm::IRBuilderBase::CreateMemSet
_ZN4llvm13IRBuilderBase15CreateMulReduceEPNS_5ValueE|llvm::IRBuilderBase::CreateMulReduce
_ZN4llvm13IRBuilderBase14CreateOrReduceEPNS_5ValueE|llvm::IRBuilderBase::CreateOrReduce
_ZN4llvm13IRBuilderBase20CreateUnaryIntrinsicENS_9Intrinsic2IDEPNS_5ValueEPNS_11InstructionERKNS_5TwineE|llvm::IRBuilderBase::CreateUnaryIntrinsic
_ZN4llvm13IRBuilderBase15CreateXorReduceEPNS_5ValueE|llvm::IRBuilderBase::CreateXorReduce
_ZN4llvm13IRBuilderBase21getCastedInt8PtrValueEPNS_5ValueEj|llvm::IRBuilderBase::getCastedInt8PtrValue
_ZNK4llvm13IRBuilderBase28getCurrentFunctionReturnTypeEv|llvm::IRBuilderBase::getCurrentFunctionReturnType
_ZN4llvm7IRMoverC1ERNS_6ModuleE|llvm::IRMover::IRMover
_ZN4llvm7IRMover4moveESt10unique_ptrINS_6ModuleESt14default_deleteIS2_EENS_8ArrayRefIPNS_11GlobalValueEEESt8functionIFvRS7_SA_IFvSB_EEEEb|llvm::IRMover::move
_ZN4llvm6object12IRObjectFileC1ENS_15MemoryBufferRefESt6vectorISt10unique_ptrINS_6ModuleESt14default_deleteIS5_EESaIS8_EE|llvm::object::IRObjectFile::IRObjectFile
_ZN4llvm6object12IRObjectFile6createENS_15MemoryBufferRefERNS_11LLVMContextE|llvm::object::IRObjectFile::create
_ZN4llvm6object12IRObjectFile22findBitcodeInMemBufferENS_15MemoryBufferRefE|llvm::object::IRObjectFile::findBitcodeInMemBuffer
_ZN4llvm6object12IRObjectFile19findBitcodeInObjectERKNS0_10ObjectFileE|llvm::object::IRObjectFile::findBitcodeInObject
_ZNK4llvm6object12IRObjectFile14getSymbolFlagsENS0_11DataRefImplE|llvm::object::IRObjectFile::getSymbolFlags
_ZNK4llvm6object12IRObjectFile15getTargetTripleEv|llvm::object::IRObjectFile::getTargetTriple
_ZNK4llvm6object12IRObjectFile14moveSymbolNextERNS0_11DataRefImplE|llvm::object::IRObjectFile::moveSymbolNext
_ZNK4llvm6object12IRObjectFile15printSymbolNameERNS_11raw_ostreamENS0_11DataRefImplE|llvm::object::IRObjectFile::printSymbolName
_ZNK4llvm6object12IRObjectFile12symbol_beginEv|llvm::object::IRObjectFile::symbol_begin
_ZNK4llvm6object12IRObjectFile10symbol_endEv|llvm::object::IRObjectFile::symbol_end
_ZN4llvm6object12IRObjectFileD1Ev|llvm::object::IRObjectFile::~IRObjectFile
_ZN4llvm8irsymtab5buildENS_8ArrayRefIPNS_6ModuleEEERNS_11SmallVectorIcLj0EEERNS_18StringTableBuilderERNS_20BumpPtrAllocatorImplINS_15MallocAllocatorELm4096ELm4096EEE|llvm::irsymtab::build
_ZN4llvm8irsymtab11readBitcodeERKNS_19BitcodeFileContentsE|llvm::irsymtab::readBitcode
_ZN4llvm8IRCEPass3runERNS_4LoopERNS_15AnalysisManagerIS1_JRNS_27LoopStandardAnalysisResultsEEEES5_RNS_10LPMUpdaterE|llvm::IRCEPass::run
